target datalayout = "e-m:e-p270:32:32-p271:32:32-p272:64:64-i64:64-i128:128-f80:128-n8:16:32:64-S128"
target triple = "x86_64-pc-linux-gnu"

; Function Attrs: nounwind uwtable
define i32 @OPENSSL_strncasecmp(ptr noundef %0, ptr noundef %1, i64 noundef %2) #0 {
  %4 = alloca i32, align 4
  %5 = alloca ptr, align 8
  %6 = alloca ptr, align 8
  %7 = alloca i64, align 8
  %8 = alloca i32, align 4
  %9 = alloca i64, align 8
  %10 = alloca i32, align 4
  store ptr %0, ptr %5, align 8, !tbaa !3
  store ptr %1, ptr %6, align 8, !tbaa !3
  store i64 %2, ptr %7, align 8, !tbaa !10
  call void @llvm.lifetime.start.p0(i64 4, ptr %8) #8
  call void @llvm.lifetime.start.p0(i64 8, ptr %9) #8
  store i64 0, ptr %9, align 8, !tbaa !10
  br label %11

11:                                               ; preds = %38, %3
  %12 = load i64, ptr %9, align 8, !tbaa !10
  %13 = load i64, ptr %7, align 8, !tbaa !10
  %14 = icmp ult i64 %12, %13
  br i1 %14, label %15, label %41

15:                                               ; preds = %11
  %16 = load ptr, ptr %5, align 8, !tbaa !3
  %17 = load i8, ptr %16, align 1, !tbaa !12
  %18 = sext i8 %17 to i32
  %19 = call i32 @ossl_tolower(i32 noundef %18)
  %20 = load ptr, ptr %6, align 8, !tbaa !3
  %21 = getelementptr inbounds nuw i8, ptr %20, i32 1
  store ptr %21, ptr %6, align 8, !tbaa !3
  %22 = load i8, ptr %20, align 1, !tbaa !12
  %23 = sext i8 %22 to i32
  %24 = call i32 @ossl_tolower(i32 noundef %23)
  %25 = sub nsw i32 %19, %24
  store i32 %25, ptr %8, align 4, !tbaa !8
  %26 = icmp ne i32 %25, 0
  br i1 %26, label %27, label %29

27:                                               ; preds = %15
  %28 = load i32, ptr %8, align 4, !tbaa !8
  store i32 %28, ptr %4, align 4
  store i32 1, ptr %10, align 4
  br label %42

29:                                               ; preds = %15
  %30 = load ptr, ptr %5, align 8, !tbaa !3
  %31 = getelementptr inbounds nuw i8, ptr %30, i32 1
  store ptr %31, ptr %5, align 8, !tbaa !3
  %32 = load i8, ptr %30, align 1, !tbaa !12
  %33 = sext i8 %32 to i32
  %34 = icmp eq i32 %33, 0
  br i1 %34, label %35, label %36

35:                                               ; preds = %29
  store i32 0, ptr %4, align 4
  store i32 1, ptr %10, align 4
  br label %42

36:                                               ; preds = %29
  br label %37

37:                                               ; preds = %36
  br label %38

38:                                               ; preds = %37
  %39 = load i64, ptr %9, align 8, !tbaa !10
  %40 = add i64 %39, 1
  store i64 %40, ptr %9, align 8, !tbaa !10
  br label %11, !llvm.loop !25

41:                                               ; preds = %11
  store i32 0, ptr %4, align 4
  store i32 1, ptr %10, align 4
  br label %42

42:                                               ; preds = %41, %35, %27
  call void @llvm.lifetime.end.p0(i64 8, ptr %9) #8
  call void @llvm.lifetime.end.p0(i64 4, ptr %8) #8
  %43 = load i32, ptr %4, align 4
  ret i32 %43
}