; Function Attrs: nounwind uwtable
define i32 @OPENSSL_strncasecmp(ptr noundef readonly captures(none) %0, ptr noundef readonly captures(none) %1, i64 noundef %2) local_unnamed_addr #0 {
  %.not20 = icmp eq i64 %2, 0
  br i1 %.not20, label %._crit_edge, label %.lr.ph

.lr.ph:                                           ; preds = %3, %11
  %.013 = phi i64 [ %16, %11 ], [ 0, %3 ]
  %.0812 = phi ptr [ %15, %11 ], [ %0, %3 ]
  %.0911 = phi ptr [ %12, %11 ], [ %1, %3 ]
  %4 = load i8, ptr %.0812, align 1, !tbaa !3
  %5 = sext i8 %4 to i32
  %6 = tail call i32 @ossl_tolower(i32 noundef %5) #16
  %7 = load i8, ptr %.0911, align 1, !tbaa !3
  %8 = sext i8 %7 to i32
  %9 = tail call i32 @ossl_tolower(i32 noundef %8) #16
  %10 = sub nsw i32 %6, %9
  %.not = icmp eq i32 %10, 0
  br i1 %.not, label %11, label %._crit_edge

11:                                               ; preds = %.lr.ph
  %12 = getelementptr inbounds nuw i8, ptr %.0911, i64 1
  %13 = load i8, ptr %.0812, align 1, !tbaa !3
  %14 = icmp ne i8 %13, 0
  %15 = getelementptr inbounds nuw i8, ptr %.0812, i64 1
  %16 = add nuw i64 %.013, 1
  %17 = icmp ult i64 %16, %2
  %or.cond = select i1 %14, i1 %17, i1 false
  br i1 %or.cond, label %.lr.ph, label %._crit_edge, !llvm.loop !20

._crit_edge:                                      ; preds = %.lr.ph, %11, %3
  %.07 = phi i32 [ 0, %3 ], [ 0, %11 ], [ %10, %.lr.ph ]
  ret i32 %.07
}